target datalayout = "e-m:e-p270:32:32-p271:32:32-p272:64:64-i64:64-i128:128-f80:128-n8:16:32:64-S128"
target triple = "x86_64-pc-linux-gnu"

%"class.Json::Features" = type { i8, i8, i8, i8 }
%"class.Json::Reader" = type <{ %"class.std::stack", %"class.std::deque.0", %"class.std::__cxx11::basic_string", ptr, ptr, ptr, ptr, ptr, %"class.std::__cxx11::basic_string", %"class.Json::Features", i8, [3 x i8] }>
%"class.std::stack" = type { %"class.std::deque" }
%"class.std::deque" = type { %"class.std::_Deque_base" }
%"class.std::_Deque_base" = type { %"struct.std::_Deque_base<Json::Value *, std::allocator<Json::Value *>>::_Deque_impl" }
%"struct.std::_Deque_base<Json::Value *, std::allocator<Json::Value *>>::_Deque_impl" = type { %"struct.std::_Deque_base<Json::Value *, std::allocator<Json::Value *>>::_Deque_impl_data" }
%"struct.std::_Deque_base<Json::Value *, std::allocator<Json::Value *>>::_Deque_impl_data" = type { ptr, i64, %"struct.std::_Deque_iterator", %"struct.std::_Deque_iterator" }
%"struct.std::_Deque_iterator" = type { ptr, ptr, ptr, ptr }
%"class.std::deque.0" = type { %"class.std::_Deque_base.1" }
%"class.std::_Deque_base.1" = type { %"struct.std::_Deque_base<Json::Reader::ErrorInfo, std::allocator<Json::Reader::ErrorInfo>>::_Deque_impl" }
%"struct.std::_Deque_base<Json::Reader::ErrorInfo, std::allocator<Json::Reader::ErrorInfo>>::_Deque_impl" = type { %"struct.std::_Deque_base<Json::Reader::ErrorInfo, std::allocator<Json::Reader::ErrorInfo>>::_Deque_impl_data" }
%"struct.std::_Deque_base<Json::Reader::ErrorInfo, std::allocator<Json::Reader::ErrorInfo>>::_Deque_impl_data" = type { ptr, i64, %"struct.std::_Deque_iterator.5", %"struct.std::_Deque_iterator.5" }
%"struct.std::_Deque_iterator.5" = type { ptr, ptr, ptr, ptr }
%"class.std::__cxx11::basic_string" = type { %"struct.std::__cxx11::basic_string<char>::_Alloc_hider", i64, %union.anon }
%"struct.std::__cxx11::basic_string<char>::_Alloc_hider" = type { ptr }
%union.anon = type { i64, [8 x i8] }

; Function Attrs: mustprogress nounwind uwtable
define dso_local noundef signext i8 @_ZN4Json6Reader11getNextCharEv(ptr noundef nonnull align 8 dereferenceable(269) %0) #4 align 2 {
  %2 = alloca i8, align 1
  %3 = alloca ptr, align 8
  store ptr %0, ptr %3, align 8
  %4 = load ptr, ptr %3, align 8
  %5 = getelementptr inbounds %"class.Json::Reader", ptr %4, i32 0, i32 5
  %6 = load ptr, ptr %5, align 8
  %7 = getelementptr inbounds %"class.Json::Reader", ptr %4, i32 0, i32 4
  %8 = load ptr, ptr %7, align 8
  %9 = icmp eq ptr %6, %8
  br i1 %9, label %10, label %11

10:                                               ; preds = %1
  store i8 0, ptr %2, align 1
  br label %16

11:                                               ; preds = %1
  %12 = getelementptr inbounds %"class.Json::Reader", ptr %4, i32 0, i32 5
  %13 = load ptr, ptr %12, align 8
  %14 = getelementptr inbounds i8, ptr %13, i32 1
  store ptr %14, ptr %12, align 8
  %15 = load i8, ptr %13, align 1
  store i8 %15, ptr %2, align 1
  br label %16

16:                                               ; preds = %11, %10
  %17 = load i8, ptr %2, align 1
  ret i8 %17
}