; Function Attrs: mustprogress nofree norecurse nosync nounwind willreturn memory(read, argmem: readwrite, inaccessiblemem: none) uwtable
define dso_local noundef signext i8 @_ZN4Json6Reader11getNextCharEv(ptr nocapture noundef nonnull align 8 dereferenceable(269) %0) local_unnamed_addr #11 align 2 {
  %2 = getelementptr inbounds i8, ptr %0, i64 208
  %3 = load ptr, ptr %2, align 8
  %4 = getelementptr inbounds i8, ptr %0, i64 200
  %5 = load ptr, ptr %4, align 8
  %6 = icmp eq ptr %3, %5
  br i1 %6, label %10, label %7

7:                                                ; preds = %1
  %8 = getelementptr inbounds i8, ptr %3, i64 1
  store ptr %8, ptr %2, align 8
  %9 = load i8, ptr %3, align 1
  br label %10

10:                                               ; preds = %1, %7
  %.0 = phi i8 [ %9, %7 ], [ 0, %1 ]
  ret i8 %.0
}